target datalayout = "e-m:e-p270:32:32-p271:32:32-p272:64:64-i64:64-i128:128-f80:128-n8:16:32:64-S128"
target triple = "x86_64-pc-linux-gnu"

%class.XErrno = type { i32 }
%class.XPhysicalMemoryBacking = type <{ i32, [4 x i8], i64, i64, i64, i64, i8, [7 x i8] }>

@g_assert_poison = external global ptr, align 8
@.str.56 = private unnamed_addr constant [59 x i8] c"src/hotspot/os/linux/gc/x/xPhysicalMemoryBacking_linux.cpp\00", align 1
@.str.57 = private unnamed_addr constant [26 x i8] c"Failed to map memory (%s)\00", align 1

; Function Attrs: mustprogress nounwind uwtable
define hidden void @_ZNK22XPhysicalMemoryBacking3mapEmmm(ptr noundef nonnull align 8 dereferenceable(41) %0, i64 noundef %1, i64 noundef %2, i64 noundef %3) #1 align 2 {
  %5 = alloca ptr, align 8
  %6 = alloca i64, align 8
  %7 = alloca i64, align 8
  %8 = alloca i64, align 8
  %9 = alloca ptr, align 8
  %10 = alloca %class.XErrno, align 4
  store ptr %0, ptr %5, align 8
  store i64 %1, ptr %6, align 8
  store i64 %2, ptr %7, align 8
  store i64 %3, ptr %8, align 8
  %11 = load ptr, ptr %5, align 8
  %12 = load i64, ptr %6, align 8
  %13 = inttoptr i64 %12 to ptr
  %14 = load i64, ptr %7, align 8
  %15 = getelementptr inbounds %class.XPhysicalMemoryBacking, ptr %11, i32 0, i32 0
  %16 = load i32, ptr %15, align 8
  %17 = load i64, ptr %8, align 8
  %18 = call ptr @mmap64(ptr noundef %13, i64 noundef %14, i32 noundef 3, i32 noundef 17, i32 noundef %16, i64 noundef %17) #8
  store ptr %18, ptr %9, align 8
  %19 = load ptr, ptr %9, align 8
  %20 = icmp eq ptr %19, inttoptr (i64 -1 to ptr)
  br i1 %20, label %21, label %26

21:                                               ; preds = %4
  call void @_ZN6XErrnoC1Ev(ptr noundef nonnull align 4 dereferenceable(4) %10)
  br label %22

22:                                               ; preds = %21
  %23 = load ptr, ptr @g_assert_poison, align 8
  store i8 88, ptr %23, align 1
  %24 = call noundef ptr @_ZNK6XErrno9to_stringEv(ptr noundef nonnull align 4 dereferenceable(4) %10)
  call void (i32, ptr, i32, ptr, ...) @_Z12report_fatal11VMErrorTypePKciS1_z(i32 noundef -536870912, ptr noundef @.str.56, i32 noundef 711, ptr noundef @.str.57, ptr noundef %24) #10
  unreachable

25:                                               ; No predecessors!
  br label %26

26:                                               ; preds = %25, %4
  ret void
}