; Function Attrs: mustprogress nounwind uwtable
define hidden void @_ZNK22XPhysicalMemoryBacking3mapEmmm(ptr nocapture noundef nonnull readonly align 8 dereferenceable(41) %0, i64 noundef %1, i64 noundef %2, i64 noundef %3) local_unnamed_addr #0 align 2 {
  %5 = alloca %class.XErrno, align 4
  %6 = inttoptr i64 %1 to ptr
  %7 = load i32, ptr %0, align 8
  %8 = tail call ptr @mmap64(ptr noundef %6, i64 noundef %2, i32 noundef 3, i32 noundef 17, i32 noundef %7, i64 noundef %3) #12
  %9 = icmp eq ptr %8, inttoptr (i64 -1 to ptr)
  br i1 %9, label %10, label %13

10:                                               ; preds = %4
  call void @_ZN6XErrnoC1Ev(ptr noundef nonnull align 4 dereferenceable(4) %5) #12
  %11 = load ptr, ptr @g_assert_poison, align 8
  store i8 88, ptr %11, align 1
  %12 = call noundef ptr @_ZNK6XErrno9to_stringEv(ptr noundef nonnull align 4 dereferenceable(4) %5) #12
  call void (i32, ptr, i32, ptr, ...) @_Z12report_fatal11VMErrorTypePKciS1_z(i32 noundef -536870912, ptr noundef nonnull @.str.56, i32 noundef 711, ptr noundef nonnull @.str.57, ptr noundef %12) #14
  unreachable

13:                                               ; preds = %4
  ret void
}